target datalayout = "e-m:e-p270:32:32-p271:32:32-p272:64:64-i64:64-i128:128-f80:128-n8:16:32:64-S128"
target triple = "x86_64-pc-linux-gnu"

%class.QObject = type { ptr, %class.QScopedPointer }
%class.QScopedPointer = type { ptr }
%class.QString = type { ptr }
%class.MainWindow = type { %class.QMainWindow, %class.MainWindowSetting, %class.QNetworkAccessManager, i32, i32, i8, ptr, ptr, ptr, ptr, ptr, ptr, %class.RichParameterList, ptr, %class.QByteArray, %class.QDir, ptr, ptr, ptr, ptr, ptr, ptr, ptr, ptr, ptr, ptr, ptr, ptr, ptr, ptr, ptr, ptr, ptr, ptr, ptr, ptr, ptr, ptr, ptr, ptr, ptr, ptr, ptr, ptr, ptr, ptr, ptr, ptr, ptr, ptr, ptr, ptr, ptr, ptr, ptr, ptr, ptr, ptr, ptr, ptr, ptr, ptr, ptr, ptr, ptr, ptr, ptr, ptr, ptr, ptr, ptr, ptr, ptr, ptr, [9 x ptr], [9 x ptr], ptr, ptr, ptr, ptr, ptr, ptr, ptr, ptr, ptr, ptr, ptr, ptr, ptr, ptr, ptr, ptr, ptr, ptr, ptr, ptr, ptr, ptr, ptr, ptr, ptr, ptr, ptr, ptr, ptr, ptr, ptr, ptr, ptr, ptr, ptr, ptr, ptr, ptr, ptr, ptr, ptr, ptr, ptr, ptr, ptr, ptr, ptr, ptr, ptr, ptr, ptr, ptr, ptr, ptr, ptr, ptr, ptr, ptr, ptr, ptr, ptr, ptr, ptr, ptr, ptr, ptr }
%class.QMainWindow = type { %class.QWidget }
%class.QWidget = type { %class.QObject, %class.QPaintDevice, ptr }
%class.QPaintDevice = type { ptr, i16, ptr }
%class.MainWindowSetting = type <{ i64, i8, [7 x i8], i64, i64, i64, i32, i32, %class.QString, i8, i8, [6 x i8] }>
%class.QNetworkAccessManager = type { %class.QObject }
%class.RichParameterList = type { %"class.std::__cxx11::list" }
%"class.std::__cxx11::list" = type { %"class.std::__cxx11::_List_base" }
%"class.std::__cxx11::_List_base" = type { %"struct.std::__cxx11::_List_base<RichParameter *, std::allocator<RichParameter *>>::_List_impl" }
%"struct.std::__cxx11::_List_base<RichParameter *, std::allocator<RichParameter *>>::_List_impl" = type { %"struct.std::__detail::_List_node_header" }
%"struct.std::__detail::_List_node_header" = type { %"struct.std::__detail::_List_node_base", i64 }
%"struct.std::__detail::_List_node_base" = type { ptr, ptr }
%class.QByteArray = type { ptr }
%class.QDir = type { %class.QSharedDataPointer }
%class.QSharedDataPointer = type { ptr }

; Function Attrs: mustprogress uwtable
define void @_ZN10MainWindow20updateSubFiltersMenuEbb(ptr noundef nonnull align 8 dereferenceable(1376) %0, i1 noundef zeroext %1, i1 noundef zeroext %2) #5 align 2 {
  %4 = alloca ptr, align 8
  %5 = alloca i8, align 1
  %6 = alloca i8, align 1
  store ptr %0, ptr %4, align 8
  %7 = zext i1 %1 to i8
  store i8 %7, ptr %5, align 1
  %8 = zext i1 %2 to i8
  store i8 %8, ptr %6, align 1
  %9 = load ptr, ptr %4, align 8
  %10 = getelementptr inbounds %class.MainWindow, ptr %9, i32 0, i32 79
  %11 = load ptr, ptr %10, align 8
  %12 = load i8, ptr %6, align 1
  %13 = trunc i8 %12 to i1
  call void @_ZN7QAction10setEnabledEb(ptr noundef nonnull align 8 dereferenceable(16) %11, i1 noundef zeroext %13)
  %14 = getelementptr inbounds %class.MainWindow, ptr %9, i32 0, i32 28
  %15 = load ptr, ptr %14, align 8
  %16 = load i8, ptr %6, align 1
  %17 = trunc i8 %16 to i1
  call void @_ZN7QWidget10setEnabledEb(ptr noundef nonnull align 8 dereferenceable(48) %15, i1 noundef zeroext %17)
  %18 = getelementptr inbounds %class.MainWindow, ptr %9, i32 0, i32 28
  %19 = load ptr, ptr %18, align 8
  %20 = load i8, ptr %6, align 1
  %21 = trunc i8 %20 to i1
  call void @_ZN10MainWindow15updateMenuItemsEP5QMenub(ptr noundef nonnull align 8 dereferenceable(1376) %9, ptr noundef %19, i1 noundef zeroext %21)
  %22 = getelementptr inbounds %class.MainWindow, ptr %9, i32 0, i32 29
  %23 = load ptr, ptr %22, align 8
  %24 = load i8, ptr %6, align 1
  %25 = trunc i8 %24 to i1
  call void @_ZN7QWidget10setEnabledEb(ptr noundef nonnull align 8 dereferenceable(48) %23, i1 noundef zeroext %25)
  %26 = getelementptr inbounds %class.MainWindow, ptr %9, i32 0, i32 29
  %27 = load ptr, ptr %26, align 8
  %28 = load i8, ptr %6, align 1
  %29 = trunc i8 %28 to i1
  call void @_ZN10MainWindow15updateMenuItemsEP5QMenub(ptr noundef nonnull align 8 dereferenceable(1376) %9, ptr noundef %27, i1 noundef zeroext %29)
  %30 = getelementptr inbounds %class.MainWindow, ptr %9, i32 0, i32 30
  %31 = load ptr, ptr %30, align 8
  %32 = load i8, ptr %5, align 1
  %33 = trunc i8 %32 to i1
  br i1 %33, label %37, label %34

34:                                               ; preds = %3
  %35 = load i8, ptr %6, align 1
  %36 = trunc i8 %35 to i1
  br label %37

37:                                               ; preds = %34, %3
  %38 = phi i1 [ true, %3 ], [ %36, %34 ]
  call void @_ZN7QWidget10setEnabledEb(ptr noundef nonnull align 8 dereferenceable(48) %31, i1 noundef zeroext %38)
  %39 = getelementptr inbounds %class.MainWindow, ptr %9, i32 0, i32 30
  %40 = load ptr, ptr %39, align 8
  %41 = load i8, ptr %5, align 1
  %42 = trunc i8 %41 to i1
  br i1 %42, label %46, label %43

43:                                               ; preds = %37
  %44 = load i8, ptr %6, align 1
  %45 = trunc i8 %44 to i1
  br label %46

46:                                               ; preds = %43, %37
  %47 = phi i1 [ true, %37 ], [ %45, %43 ]
  call void @_ZN10MainWindow15updateMenuItemsEP5QMenub(ptr noundef nonnull align 8 dereferenceable(1376) %9, ptr noundef %40, i1 noundef zeroext %47)
  %48 = getelementptr inbounds %class.MainWindow, ptr %9, i32 0, i32 31
  %49 = load ptr, ptr %48, align 8
  %50 = load i8, ptr %6, align 1
  %51 = trunc i8 %50 to i1
  call void @_ZN7QWidget10setEnabledEb(ptr noundef nonnull align 8 dereferenceable(48) %49, i1 noundef zeroext %51)
  %52 = getelementptr inbounds %class.MainWindow, ptr %9, i32 0, i32 31
  %53 = load ptr, ptr %52, align 8
  %54 = load i8, ptr %6, align 1
  %55 = trunc i8 %54 to i1
  call void @_ZN10MainWindow15updateMenuItemsEP5QMenub(ptr noundef nonnull align 8 dereferenceable(1376) %9, ptr noundef %53, i1 noundef zeroext %55)
  %56 = getelementptr inbounds %class.MainWindow, ptr %9, i32 0, i32 32
  %57 = load ptr, ptr %56, align 8
  %58 = load i8, ptr %6, align 1
  %59 = trunc i8 %58 to i1
  call void @_ZN7QWidget10setEnabledEb(ptr noundef nonnull align 8 dereferenceable(48) %57, i1 noundef zeroext %59)
  %60 = getelementptr inbounds %class.MainWindow, ptr %9, i32 0, i32 32
  %61 = load ptr, ptr %60, align 8
  %62 = load i8, ptr %6, align 1
  %63 = trunc i8 %62 to i1
  call void @_ZN10MainWindow15updateMenuItemsEP5QMenub(ptr noundef nonnull align 8 dereferenceable(1376) %9, ptr noundef %61, i1 noundef zeroext %63)
  %64 = getelementptr inbounds %class.MainWindow, ptr %9, i32 0, i32 33
  %65 = load ptr, ptr %64, align 8
  %66 = load i8, ptr %6, align 1
  %67 = trunc i8 %66 to i1
  call void @_ZN7QWidget10setEnabledEb(ptr noundef nonnull align 8 dereferenceable(48) %65, i1 noundef zeroext %67)
  %68 = getelementptr inbounds %class.MainWindow, ptr %9, i32 0, i32 33
  %69 = load ptr, ptr %68, align 8
  %70 = load i8, ptr %6, align 1
  %71 = trunc i8 %70 to i1
  call void @_ZN10MainWindow15updateMenuItemsEP5QMenub(ptr noundef nonnull align 8 dereferenceable(1376) %9, ptr noundef %69, i1 noundef zeroext %71)
  %72 = getelementptr inbounds %class.MainWindow, ptr %9, i32 0, i32 34
  %73 = load ptr, ptr %72, align 8
  %74 = load i8, ptr %6, align 1
  %75 = trunc i8 %74 to i1
  call void @_ZN7QWidget10setEnabledEb(ptr noundef nonnull align 8 dereferenceable(48) %73, i1 noundef zeroext %75)
  %76 = getelementptr inbounds %class.MainWindow, ptr %9, i32 0, i32 34
  %77 = load ptr, ptr %76, align 8
  %78 = load i8, ptr %6, align 1
  %79 = trunc i8 %78 to i1
  call void @_ZN10MainWindow15updateMenuItemsEP5QMenub(ptr noundef nonnull align 8 dereferenceable(1376) %9, ptr noundef %77, i1 noundef zeroext %79)
  %80 = getelementptr inbounds %class.MainWindow, ptr %9, i32 0, i32 35
  %81 = load ptr, ptr %80, align 8
  %82 = load i8, ptr %6, align 1
  %83 = trunc i8 %82 to i1
  call void @_ZN7QWidget10setEnabledEb(ptr noundef nonnull align 8 dereferenceable(48) %81, i1 noundef zeroext %83)
  %84 = getelementptr inbounds %class.MainWindow, ptr %9, i32 0, i32 35
  %85 = load ptr, ptr %84, align 8
  %86 = load i8, ptr %6, align 1
  %87 = trunc i8 %86 to i1
  call void @_ZN10MainWindow15updateMenuItemsEP5QMenub(ptr noundef nonnull align 8 dereferenceable(1376) %9, ptr noundef %85, i1 noundef zeroext %87)
  %88 = getelementptr inbounds %class.MainWindow, ptr %9, i32 0, i32 38
  %89 = load ptr, ptr %88, align 8
  %90 = load i8, ptr %6, align 1
  %91 = trunc i8 %90 to i1
  call void @_ZN7QWidget10setEnabledEb(ptr noundef nonnull align 8 dereferenceable(48) %89, i1 noundef zeroext %91)
  %92 = getelementptr inbounds %class.MainWindow, ptr %9, i32 0, i32 38
  %93 = load ptr, ptr %92, align 8
  %94 = load i8, ptr %6, align 1
  %95 = trunc i8 %94 to i1
  call void @_ZN10MainWindow15updateMenuItemsEP5QMenub(ptr noundef nonnull align 8 dereferenceable(1376) %9, ptr noundef %93, i1 noundef zeroext %95)
  %96 = getelementptr inbounds %class.MainWindow, ptr %9, i32 0, i32 36
  %97 = load ptr, ptr %96, align 8
  %98 = load i8, ptr %6, align 1
  %99 = trunc i8 %98 to i1
  call void @_ZN7QWidget10setEnabledEb(ptr noundef nonnull align 8 dereferenceable(48) %97, i1 noundef zeroext %99)
  %100 = getelementptr inbounds %class.MainWindow, ptr %9, i32 0, i32 36
  %101 = load ptr, ptr %100, align 8
  %102 = load i8, ptr %6, align 1
  %103 = trunc i8 %102 to i1
  call void @_ZN10MainWindow15updateMenuItemsEP5QMenub(ptr noundef nonnull align 8 dereferenceable(1376) %9, ptr noundef %101, i1 noundef zeroext %103)
  %104 = getelementptr inbounds %class.MainWindow, ptr %9, i32 0, i32 37
  %105 = load ptr, ptr %104, align 8
  %106 = load i8, ptr %6, align 1
  %107 = trunc i8 %106 to i1
  call void @_ZN7QWidget10setEnabledEb(ptr noundef nonnull align 8 dereferenceable(48) %105, i1 noundef zeroext %107)
  %108 = getelementptr inbounds %class.MainWindow, ptr %9, i32 0, i32 37
  %109 = load ptr, ptr %108, align 8
  %110 = load i8, ptr %6, align 1
  %111 = trunc i8 %110 to i1
  call void @_ZN10MainWindow15updateMenuItemsEP5QMenub(ptr noundef nonnull align 8 dereferenceable(1376) %9, ptr noundef %109, i1 noundef zeroext %111)
  %112 = getelementptr inbounds %class.MainWindow, ptr %9, i32 0, i32 39
  %113 = load ptr, ptr %112, align 8
  %114 = load i8, ptr %6, align 1
  %115 = trunc i8 %114 to i1
  call void @_ZN7QWidget10setEnabledEb(ptr noundef nonnull align 8 dereferenceable(48) %113, i1 noundef zeroext %115)
  %116 = getelementptr inbounds %class.MainWindow, ptr %9, i32 0, i32 39
  %117 = load ptr, ptr %116, align 8
  %118 = load i8, ptr %6, align 1
  %119 = trunc i8 %118 to i1
  call void @_ZN10MainWindow15updateMenuItemsEP5QMenub(ptr noundef nonnull align 8 dereferenceable(1376) %9, ptr noundef %117, i1 noundef zeroext %119)
  %120 = getelementptr inbounds %class.MainWindow, ptr %9, i32 0, i32 40
  %121 = load ptr, ptr %120, align 8
  %122 = load i8, ptr %6, align 1
  %123 = trunc i8 %122 to i1
  call void @_ZN7QWidget10setEnabledEb(ptr noundef nonnull align 8 dereferenceable(48) %121, i1 noundef zeroext %123)
  %124 = getelementptr inbounds %class.MainWindow, ptr %9, i32 0, i32 40
  %125 = load ptr, ptr %124, align 8
  %126 = load i8, ptr %6, align 1
  %127 = trunc i8 %126 to i1
  call void @_ZN10MainWindow15updateMenuItemsEP5QMenub(ptr noundef nonnull align 8 dereferenceable(1376) %9, ptr noundef %125, i1 noundef zeroext %127)
  %128 = getelementptr inbounds %class.MainWindow, ptr %9, i32 0, i32 41
  %129 = load ptr, ptr %128, align 8
  %130 = load i8, ptr %6, align 1
  %131 = trunc i8 %130 to i1
  call void @_ZN7QWidget10setEnabledEb(ptr noundef nonnull align 8 dereferenceable(48) %129, i1 noundef zeroext %131)
  %132 = getelementptr inbounds %class.MainWindow, ptr %9, i32 0, i32 41
  %133 = load ptr, ptr %132, align 8
  %134 = load i8, ptr %6, align 1
  %135 = trunc i8 %134 to i1
  call void @_ZN10MainWindow15updateMenuItemsEP5QMenub(ptr noundef nonnull align 8 dereferenceable(1376) %9, ptr noundef %133, i1 noundef zeroext %135)
  %136 = getelementptr inbounds %class.MainWindow, ptr %9, i32 0, i32 42
  %137 = load ptr, ptr %136, align 8
  %138 = load i8, ptr %6, align 1
  %139 = trunc i8 %138 to i1
  call void @_ZN7QWidget10setEnabledEb(ptr noundef nonnull align 8 dereferenceable(48) %137, i1 noundef zeroext %139)
  %140 = getelementptr inbounds %class.MainWindow, ptr %9, i32 0, i32 42
  %141 = load ptr, ptr %140, align 8
  %142 = load i8, ptr %6, align 1
  %143 = trunc i8 %142 to i1
  call void @_ZN10MainWindow15updateMenuItemsEP5QMenub(ptr noundef nonnull align 8 dereferenceable(1376) %9, ptr noundef %141, i1 noundef zeroext %143)
  %144 = getelementptr inbounds %class.MainWindow, ptr %9, i32 0, i32 43
  %145 = load ptr, ptr %144, align 8
  %146 = load i8, ptr %6, align 1
  %147 = trunc i8 %146 to i1
  call void @_ZN7QWidget10setEnabledEb(ptr noundef nonnull align 8 dereferenceable(48) %145, i1 noundef zeroext %147)
  %148 = getelementptr inbounds %class.MainWindow, ptr %9, i32 0, i32 43
  %149 = load ptr, ptr %148, align 8
  %150 = load i8, ptr %6, align 1
  %151 = trunc i8 %150 to i1
  call void @_ZN10MainWindow15updateMenuItemsEP5QMenub(ptr noundef nonnull align 8 dereferenceable(1376) %9, ptr noundef %149, i1 noundef zeroext %151)
  ret void
}