; Function Attrs: mustprogress uwtable
define void @_ZN10MainWindow20updateSubFiltersMenuEbb(ptr nocapture noundef nonnull readonly align 8 dereferenceable(1376) %0, i1 noundef zeroext %1, i1 noundef zeroext %2) local_unnamed_addr #9 align 2 {
  %4 = getelementptr inbounds i8, ptr %0, i64 872
  %5 = load ptr, ptr %4, align 8
  tail call void @_ZN7QAction10setEnabledEb(ptr noundef nonnull align 8 dereferenceable(16) %5, i1 noundef zeroext %2)
  %6 = getelementptr inbounds i8, ptr %0, i64 336
  %7 = load ptr, ptr %6, align 8
  tail call void @_ZN7QWidget10setEnabledEb(ptr noundef nonnull align 8 dereferenceable(48) %7, i1 noundef zeroext %2)
  %8 = load ptr, ptr %6, align 8
  tail call void @_ZN10MainWindow15updateMenuItemsEP5QMenub(ptr nonnull align 8 poison, ptr noundef %8, i1 noundef zeroext %2)
  %9 = getelementptr inbounds i8, ptr %0, i64 344
  %10 = load ptr, ptr %9, align 8
  tail call void @_ZN7QWidget10setEnabledEb(ptr noundef nonnull align 8 dereferenceable(48) %10, i1 noundef zeroext %2)
  %11 = load ptr, ptr %9, align 8
  tail call void @_ZN10MainWindow15updateMenuItemsEP5QMenub(ptr nonnull align 8 poison, ptr noundef %11, i1 noundef zeroext %2)
  %12 = getelementptr inbounds i8, ptr %0, i64 352
  %13 = load ptr, ptr %12, align 8
  %14 = or i1 %1, %2
  tail call void @_ZN7QWidget10setEnabledEb(ptr noundef nonnull align 8 dereferenceable(48) %13, i1 noundef zeroext %14)
  %15 = load ptr, ptr %12, align 8
  tail call void @_ZN10MainWindow15updateMenuItemsEP5QMenub(ptr nonnull align 8 poison, ptr noundef %15, i1 noundef zeroext %14)
  %16 = getelementptr inbounds i8, ptr %0, i64 360
  %17 = load ptr, ptr %16, align 8
  tail call void @_ZN7QWidget10setEnabledEb(ptr noundef nonnull align 8 dereferenceable(48) %17, i1 noundef zeroext %2)
  %18 = load ptr, ptr %16, align 8
  tail call void @_ZN10MainWindow15updateMenuItemsEP5QMenub(ptr nonnull align 8 poison, ptr noundef %18, i1 noundef zeroext %2)
  %19 = getelementptr inbounds i8, ptr %0, i64 368
  %20 = load ptr, ptr %19, align 8
  tail call void @_ZN7QWidget10setEnabledEb(ptr noundef nonnull align 8 dereferenceable(48) %20, i1 noundef zeroext %2)
  %21 = load ptr, ptr %19, align 8
  tail call void @_ZN10MainWindow15updateMenuItemsEP5QMenub(ptr nonnull align 8 poison, ptr noundef %21, i1 noundef zeroext %2)
  %22 = getelementptr inbounds i8, ptr %0, i64 376
  %23 = load ptr, ptr %22, align 8
  tail call void @_ZN7QWidget10setEnabledEb(ptr noundef nonnull align 8 dereferenceable(48) %23, i1 noundef zeroext %2)
  %24 = load ptr, ptr %22, align 8
  tail call void @_ZN10MainWindow15updateMenuItemsEP5QMenub(ptr nonnull align 8 poison, ptr noundef %24, i1 noundef zeroext %2)
  %25 = getelementptr inbounds i8, ptr %0, i64 384
  %26 = load ptr, ptr %25, align 8
  tail call void @_ZN7QWidget10setEnabledEb(ptr noundef nonnull align 8 dereferenceable(48) %26, i1 noundef zeroext %2)
  %27 = load ptr, ptr %25, align 8
  tail call void @_ZN10MainWindow15updateMenuItemsEP5QMenub(ptr nonnull align 8 poison, ptr noundef %27, i1 noundef zeroext %2)
  %28 = getelementptr inbounds i8, ptr %0, i64 392
  %29 = load ptr, ptr %28, align 8
  tail call void @_ZN7QWidget10setEnabledEb(ptr noundef nonnull align 8 dereferenceable(48) %29, i1 noundef zeroext %2)
  %30 = load ptr, ptr %28, align 8
  tail call void @_ZN10MainWindow15updateMenuItemsEP5QMenub(ptr nonnull align 8 poison, ptr noundef %30, i1 noundef zeroext %2)
  %31 = getelementptr inbounds i8, ptr %0, i64 416
  %32 = load ptr, ptr %31, align 8
  tail call void @_ZN7QWidget10setEnabledEb(ptr noundef nonnull align 8 dereferenceable(48) %32, i1 noundef zeroext %2)
  %33 = load ptr, ptr %31, align 8
  tail call void @_ZN10MainWindow15updateMenuItemsEP5QMenub(ptr nonnull align 8 poison, ptr noundef %33, i1 noundef zeroext %2)
  %34 = getelementptr inbounds i8, ptr %0, i64 400
  %35 = load ptr, ptr %34, align 8
  tail call void @_ZN7QWidget10setEnabledEb(ptr noundef nonnull align 8 dereferenceable(48) %35, i1 noundef zeroext %2)
  %36 = load ptr, ptr %34, align 8
  tail call void @_ZN10MainWindow15updateMenuItemsEP5QMenub(ptr nonnull align 8 poison, ptr noundef %36, i1 noundef zeroext %2)
  %37 = getelementptr inbounds i8, ptr %0, i64 408
  %38 = load ptr, ptr %37, align 8
  tail call void @_ZN7QWidget10setEnabledEb(ptr noundef nonnull align 8 dereferenceable(48) %38, i1 noundef zeroext %2)
  %39 = load ptr, ptr %37, align 8
  tail call void @_ZN10MainWindow15updateMenuItemsEP5QMenub(ptr nonnull align 8 poison, ptr noundef %39, i1 noundef zeroext %2)
  %40 = getelementptr inbounds i8, ptr %0, i64 424
  %41 = load ptr, ptr %40, align 8
  tail call void @_ZN7QWidget10setEnabledEb(ptr noundef nonnull align 8 dereferenceable(48) %41, i1 noundef zeroext %2)
  %42 = load ptr, ptr %40, align 8
  tail call void @_ZN10MainWindow15updateMenuItemsEP5QMenub(ptr nonnull align 8 poison, ptr noundef %42, i1 noundef zeroext %2)
  %43 = getelementptr inbounds i8, ptr %0, i64 432
  %44 = load ptr, ptr %43, align 8
  tail call void @_ZN7QWidget10setEnabledEb(ptr noundef nonnull align 8 dereferenceable(48) %44, i1 noundef zeroext %2)
  %45 = load ptr, ptr %43, align 8
  tail call void @_ZN10MainWindow15updateMenuItemsEP5QMenub(ptr nonnull align 8 poison, ptr noundef %45, i1 noundef zeroext %2)
  %46 = getelementptr inbounds i8, ptr %0, i64 440
  %47 = load ptr, ptr %46, align 8
  tail call void @_ZN7QWidget10setEnabledEb(ptr noundef nonnull align 8 dereferenceable(48) %47, i1 noundef zeroext %2)
  %48 = load ptr, ptr %46, align 8
  tail call void @_ZN10MainWindow15updateMenuItemsEP5QMenub(ptr nonnull align 8 poison, ptr noundef %48, i1 noundef zeroext %2)
  %49 = getelementptr inbounds i8, ptr %0, i64 448
  %50 = load ptr, ptr %49, align 8
  tail call void @_ZN7QWidget10setEnabledEb(ptr noundef nonnull align 8 dereferenceable(48) %50, i1 noundef zeroext %2)
  %51 = load ptr, ptr %49, align 8
  tail call void @_ZN10MainWindow15updateMenuItemsEP5QMenub(ptr nonnull align 8 poison, ptr noundef %51, i1 noundef zeroext %2)
  %52 = getelementptr inbounds i8, ptr %0, i64 456
  %53 = load ptr, ptr %52, align 8
  tail call void @_ZN7QWidget10setEnabledEb(ptr noundef nonnull align 8 dereferenceable(48) %53, i1 noundef zeroext %2)
  %54 = load ptr, ptr %52, align 8
  tail call void @_ZN10MainWindow15updateMenuItemsEP5QMenub(ptr nonnull align 8 poison, ptr noundef %54, i1 noundef zeroext %2)
  ret void
}